; Function Attrs: nounwind sspstrong uwtable
define internal noundef i64 @group_by_i(i64 %0, i64 noundef %1, i32 noundef %2, ptr noundef %3, i64 %4) #0 {
  switch i32 %2, label %rb_enum_values_pack.exit [
    i32 0, label %.thread
    i32 1, label %11
  ]

rb_enum_values_pack.exit:                         ; preds = %5
  %6 = sext i32 %2 to i64
  %7 = tail call i64 @rb_ary_new_from_values(i64 noundef %6, ptr noundef %3) #14
  %8 = icmp sgt i32 %2, 1
  br i1 %8, label %9, label %.thread

9:                                                ; preds = %rb_enum_values_pack.exit
  %10 = tail call i64 @rb_yield_force_blockarg(i64 noundef %7) #14
  br label %enum_yield.exit

11:                                               ; preds = %5
  %12 = load i64, ptr %3, align 8, !tbaa !7
  %13 = tail call i64 @rb_yield(i64 noundef %12) #14
  br label %enum_yield.exit

.thread:                                          ; preds = %rb_enum_values_pack.exit, %5
  %.0.i121618 = phi i64 [ 4, %5 ], [ %7, %rb_enum_values_pack.exit ]
  %14 = tail call i64 @rb_yield_values2(i32 noundef 0, ptr noundef null) #14
  br label %enum_yield.exit

enum_yield.exit:                                  ; preds = %9, %11, %.thread
  %.0.i1215 = phi i64 [ %7, %9 ], [ %12, %11 ], [ %.0.i121618, %.thread ]
  %.0.i13 = phi i64 [ %10, %9 ], [ %13, %11 ], [ %14, %.thread ]
  %15 = tail call i64 @rb_hash_aref(i64 noundef %1, i64 noundef %.0.i13) #14
  %16 = icmp eq i64 %15, 0
  %17 = and i64 %15, 7
  %18 = icmp ne i64 %17, 0
  %19 = or i1 %16, %18
  br i1 %19, label %rbimpl_RB_TYPE_P_fastpath.exit.thread, label %rbimpl_RB_TYPE_P_fastpath.exit

rbimpl_RB_TYPE_P_fastpath.exit:                   ; preds = %enum_yield.exit
  %20 = inttoptr i64 %15 to ptr
  %21 = load i64, ptr %20, align 8, !tbaa !20
  %22 = and i64 %21, 31
  %23 = icmp eq i64 %22, 7
  br i1 %23, label %26, label %rbimpl_RB_TYPE_P_fastpath.exit.thread

rbimpl_RB_TYPE_P_fastpath.exit.thread:            ; preds = %enum_yield.exit, %rbimpl_RB_TYPE_P_fastpath.exit
  %24 = tail call i64 (i64, ...) @rb_ary_new_from_args(i64 noundef 1, i64 noundef %.0.i1215) #14
  %25 = tail call i64 @rb_hash_aset(i64 noundef %1, i64 noundef %.0.i13, i64 noundef %24) #14
  br label %28

26:                                               ; preds = %rbimpl_RB_TYPE_P_fastpath.exit
  %27 = tail call i64 @rb_ary_push(i64 noundef %15, i64 noundef %.0.i1215) #14
  br label %28

28:                                               ; preds = %26, %rbimpl_RB_TYPE_P_fastpath.exit.thread
  ret i64 4
}